EXPORTS
    DllMain@12 @1
    _ZN3cck5Clock10GetALLTimeEv @2
    _ZN3cck5Clock11m_useHTimerE @3 DATA
    _ZN3cck5Clock11static_lockE @4 DATA
    _ZN3cck5Clock12checkEslapseEd @5
    _ZN3cck5Clock17checkEslapseResetEd @6
    _ZN3cck5Clock3NowEv @7
    _ZN3cck5Clock4StopEv @8
    _ZN3cck5Clock5PauseEv @9
    _ZN3cck5Clock5StartEv @10
    _ZN3cck5Clock6ResumeEv @11
    _ZN3cck5Clock8m_cpuFeqE @12 DATA
    _ZN3cck5Clock9GetOffsetEv @13
    _ZN3cck5Clock9useHTimerE @14 DATA
    _ZN3cck5ClockC1Eb @15
    _ZN3cck5ClockC2Eb @16
    _ZN4alib8Document5ParseENSt7__cxx1112basic_stringIcSt11char_traitsIcESaIcEEE @17
    _ZN4alib8Document7ForEachEPFvNSt7__cxx1112basic_stringIcSt11char_traitsIcESaIcEEES6_PvES7_ @18
    _ZN4alib8Document8GetValueENSt7__cxx1112basic_stringIcSt11char_traitsIcESaIcEEE @19
    _ZN4alib8Document9GetValueIESt6vectorINSt7__cxx1112basic_stringIcSt11char_traitsIcESaIcEEESaIS7_EE @20
    _ZN4alib8DocumentC1Ev @21
    _ZN4alib8DocumentC2Ev @22
    _ZN4alib8DocumentD1Ev @23
    _ZN4alib8DocumentD2Ev @24
    _ZN4alib8LogSaver12closeStoringEv @25
    _ZN4alib8LogSaver13SetFileOutputENSt7__cxx1112basic_stringIcSt11char_traitsIcESaIcEEES6_ @26
    _ZN4alib8LogSaver15OutputToConsoleEb @27
    _ZN4alib8LogSaver5closeEv @28
    _ZN4alib8LogSaver5flushEv @29
    _ZN4alib8LogSaver8setLevelEi @30
    _ZN4alib8LogSaver9getStatusEv @31
    _ZN4alib8LogSaverC1Eb @32
    _ZN4alib8LogSaverC2Eb @33
    _ZN4alib8LogSaverD1Ev @34
    _ZN4alib8LogSaverD2Ev @35
    _ZN4alib8LogSaverlsENSt7__cxx1112basic_stringIcSt11char_traitsIcESaIcEEE @36
    _ZN4alib8LogSaverlsEPKc @37
    _ZN4alib8LogSaverlsEd @38
    _ZN4alib8LogSaverlsEf @39
    _ZN4alib8LogSaverlsEi @40
