EXPORTS
    DllMain@12 @1
    _ZN3cck5Clock10GetALLTimeEv @2
    _ZN3cck5Clock11m_useHTimerE @3 DATA
    _ZN3cck5Clock11static_lockE @4 DATA
    _ZN3cck5Clock12checkEslapseEd @5
    _ZN3cck5Clock17checkEslapseResetEd @6
    _ZN3cck5Clock3NowEv @7
    _ZN3cck5Clock4StopEv @8
    _ZN3cck5Clock5PauseEv @9
    _ZN3cck5Clock5StartEv @10
    _ZN3cck5Clock6ResumeEv @11
    _ZN3cck5Clock8m_cpuFeqE @12 DATA
    _ZN3cck5Clock9GetOffsetEv @13
    _ZN3cck5Clock9useHTimerE @14 DATA
    _ZN3cck5ClockC1Eb @15
    _ZN3cck5ClockC2Eb @16
    _ZN4alib10Translator13LoadTranslateENSt7__cxx1112basic_stringIcSt11char_traitsIcESaIcEEE @17
    _ZN4alib10Translator13SetDefaultKeyEPKc @18
    _ZN4alib10Translator13SetDefaultKeyERKNSt7__cxx1112basic_stringIcSt11char_traitsIcESaIcEEE @19
    _ZN4alib10Translator18LoadTranslateFilesENSt7__cxx1112basic_stringIcSt11char_traitsIcESaIcEEE @20
    _ZN4alib10Translator9TranslateENSt7__cxx1112basic_stringIcSt11char_traitsIcESaIcEEES6_NS_13MultiEnString7EncTypeE @21
    _ZN4alib12CriticalLockC1ER21_RTL_CRITICAL_SECTION @22
    _ZN4alib12CriticalLockC2ER21_RTL_CRITICAL_SECTION @23
    _ZN4alib12CriticalLockD1Ev @24
    _ZN4alib12CriticalLockD2Ev @25
    _ZN4alib13MultiEnString10GetUnicodeB5cxx11Ev @26
    _ZN4alib13MultiEnString6GetGBKB5cxx11Ev @27
    _ZN4alib13MultiEnString7GetUTF8B5cxx11Ev @28
    _ZN4alib13MultiEnString8GetUTF16B5cxx11Ev @29
    _ZN4alib13MultiEnStringC1ENSt7__cxx1112basic_stringIcSt11char_traitsIcESaIcEEENS0_7EncTypeE @30
    _ZN4alib13MultiEnStringC1ENSt7__cxx1112basic_stringIwSt11char_traitsIwESaIwEEENS0_7EncTypeE @31
    _ZN4alib13MultiEnStringC2ENSt7__cxx1112basic_stringIcSt11char_traitsIcESaIcEEENS0_7EncTypeE @32
    _ZN4alib13MultiEnStringC2ENSt7__cxx1112basic_stringIwSt11char_traitsIwESaIwEEENS0_7EncTypeE @33
    _ZN4alib4Util11StringsplitENSt7__cxx1112basic_stringIcSt11char_traitsIcESaIcEEES6_RSt6vectorIS6_SaIS6_EE @34
    _ZN4alib4Util12check_existsEPc @35
    _ZN4alib4Util12getFileNamesENSt7__cxx1112basic_stringIcSt11char_traitsIcESaIcEEERSt6vectorIS6_SaIS6_EE @36
    _ZN4alib4Util13colorfulPrintENSt7__cxx1112basic_stringIcSt11char_traitsIcESaIcEEEi @37
    _ZN4alib4Util16translateSecondsB5cxx11Ei @38
    _ZN4alib4Util18GetTranslateStringENSt7__cxx1112basic_stringIcSt11char_traitsIcESaIcEEE @39
    _ZN4alib4Util18Windows_getCPUInfoB5cxx11Ev @40
    _ZN4alib4Util20GetGlobalMemoryUsageEv @41
    _ZN4alib4Util21GetCurrentMemoryUsageEv @42
    _ZN4alib4Util4TrimERNSt7__cxx1112basic_stringIcSt11char_traitsIcESaIcEEE @43
    _ZN4alib4Util5splitERSt6vectorINSt7__cxx1112basic_stringIcSt11char_traitsIcESaIcEEESaIS7_EERKS7_c @44
    _ZN4alib4Util7getTimeB5cxx11Ev @45
    _ZN4alib4Util7readAllB5cxx11ERSt14basic_ifstreamIcSt11char_traitsIcEE @46
    _ZN4alib4Util8writeAllENSt7__cxx1112basic_stringIcSt11char_traitsIcESaIcEEES6_ @47
    _ZN4alib4Util9GBKToUTF8ERKNSt7__cxx1112basic_stringIcSt11char_traitsIcESaIcEEE @48
    _ZN4alib4Util9UTF8ToGBKERKNSt7__cxx1112basic_stringIcSt11char_traitsIcESaIcEEE @49
    _ZN4alib4Util9file_sizeEPc @50
    _ZN4alib7CPUInfoC1Ev @51
    _ZN4alib7CPUInfoC2Ev @52
    _ZN4alib8Document5ParseENSt7__cxx1112basic_stringIcSt11char_traitsIcESaIcEEE @53
    _ZN4alib8Document7ForEachEPFvNSt7__cxx1112basic_stringIcSt11char_traitsIcESaIcEEES6_PvES7_ @54
    _ZN4alib8Document8GetValueENSt7__cxx1112basic_stringIcSt11char_traitsIcESaIcEEE @55
    _ZN4alib8Document9GetValueIESt6vectorINSt7__cxx1112basic_stringIcSt11char_traitsIcESaIcEEESaIS7_EE @56
    _ZN4alib8DocumentC1Ev @57
    _ZN4alib8DocumentC2Ev @58
    _ZN4alib8DocumentD1Ev @59
    _ZN4alib8DocumentD2Ev @60
    _ZN4alib8LogSaver13SetFileOutputENSt7__cxx1112basic_stringIcSt11char_traitsIcESaIcEEES6_ @61
    _ZN4alib8LogSaver15OutputToConsoleEb @62
    _ZN4alib8LogSaver3logEiRNSt7__cxx1112basic_stringIcSt11char_traitsIcESaIcEEE @63
    _ZN4alib8LogSaver4infoENSt7__cxx1112basic_stringIcSt11char_traitsIcESaIcEEE @64
    _ZN4alib8LogSaver4warnENSt7__cxx1112basic_stringIcSt11char_traitsIcESaIcEEE @65
    _ZN4alib8LogSaver5closeEv @66
    _ZN4alib8LogSaver5debugENSt7__cxx1112basic_stringIcSt11char_traitsIcESaIcEEE @67
    _ZN4alib8LogSaver5errorENSt7__cxx1112basic_stringIcSt11char_traitsIcESaIcEEE @68
    _ZN4alib8LogSaver5flushEv @69
    _ZN4alib8LogSaver5traceENSt7__cxx1112basic_stringIcSt11char_traitsIcESaIcEEE @70
    _ZN4alib8LogSaver7genTypeEi @71
    _ZN4alib8LogSaver7getMaskEv @72
    _ZN4alib8LogSaver7getModeEv @73
    _ZN4alib8LogSaver7makeMsgEiRNSt7__cxx1112basic_stringIcSt11char_traitsIcESaIcEEEb @74
    _ZN4alib8LogSaver8criticalENSt7__cxx1112basic_stringIcSt11char_traitsIcESaIcEEE @75
    _ZN4alib8LogSaver8getLevelEv @76
    _ZN4alib8LogSaver8setLevelEi @77
    _ZN4alib8LogSaver8showLogsEi @78
    _ZN4alib8LogSaver9configureEi @79
    _ZN4alib8LogSaver9getStatusEv @80
    _ZN4alib8LogSaverC1Ebi @81
    _ZN4alib8LogSaverC2Ebi @82
    _ZN4alib8LogSaverD1Ev @83
    _ZN4alib8LogSaverD2Ev @84
    _ZN4alib8LogSaverlsENSt7__cxx1112basic_stringIcSt11char_traitsIcESaIcEEE @85
    _ZN4alib8LogSaverlsEPKc @86
    _ZN4alib8LogSaverlsEd @87
    _ZN4alib8LogSaverlsEf @88
    _ZN4alib8LogSaverlsEi @89
